target datalayout = "e-m:e-p270:32:32-p271:32:32-p272:64:64-i64:64-i128:128-f80:128-n8:16:32:64-S128"
target triple = "x86_64-pc-linux-gnu"

%struct.darktable_t = type { %struct.dt_codepath_t, i32, i32, ptr, ptr, ptr, ptr, ptr, ptr, ptr, ptr, ptr, ptr, ptr, ptr, ptr, ptr, ptr, ptr, ptr, ptr, ptr, ptr, ptr, ptr, ptr, ptr, ptr, ptr, ptr, [64 x %struct.dt_pthread_mutex_t], %struct.dt_pthread_mutex_t, %struct.dt_pthread_mutex_t, %struct.dt_pthread_mutex_t, %struct.dt_pthread_mutex_t, %struct.dt_pthread_mutex_t, ptr, ptr, ptr, ptr, ptr, ptr, ptr, ptr, ptr, ptr, ptr, ptr, ptr, %struct.dt_lua_state_t, ptr, double, ptr, i32, [47 x i32], i32, i32, ptr, ptr, %struct.dt_sys_resources_t, %struct.dt_backthumb_t, %struct.dt_gimp_t }
%struct.dt_codepath_t = type { i8, [3 x i8] }
%struct.dt_pthread_mutex_t = type { %union.pthread_mutex_t }
%union.pthread_mutex_t = type { %struct.__pthread_mutex_s }
%struct.__pthread_mutex_s = type { i32, i32, i32, i32, i32, i16, i16, %struct.__pthread_internal_list }
%struct.__pthread_internal_list = type { ptr, ptr }
%struct.dt_lua_state_t = type { i32 }
%struct.dt_sys_resources_t = type { i64, i64, ptr, ptr, i32 }
%struct.dt_backthumb_t = type { double, double, i32, i32, i32, i32 }
%struct.dt_gimp_t = type { i32, ptr, ptr, i32, i32 }
%struct.backend_kwallet_context_t = type { ptr, ptr, ptr }
%struct._GError = type { i32, i32, ptr }

@darktable = external global %struct.darktable_t, align 8
@.str.11 = private unnamed_addr constant [63 x i8] c"[pwstorage_kwallet] ERROR: failed to complete kwallet call: %s\00", align 1
@klauncher_service_name = internal global ptr @.str.22, align 8
@klauncher_path = internal global ptr @.str.23, align 8
@klauncher_interface = internal global ptr @.str.24, align 8
@.str.17 = private unnamed_addr constant [30 x i8] c"start_service_by_desktop_name\00", align 1
@.str.18 = private unnamed_addr constant [10 x i8] c"(sasassb)\00", align 1
@.str.19 = private unnamed_addr constant [9 x i8] c"kwalletd\00", align 1
@.str.20 = private unnamed_addr constant [1 x i8] zeroinitializer, align 1
@.str.21 = private unnamed_addr constant [56 x i8] c"[pwstorage_kwallet] ERROR: error launching kwalletd: %s\00", align 1

; Function Attrs: nounwind uwtable
define internal i32 @start_kwallet(ptr noundef %0) #0 {
  %2 = alloca i32, align 4
  %3 = alloca ptr, align 8
  %4 = alloca ptr, align 8
  %5 = alloca ptr, align 8
  %6 = alloca i32, align 4
  %7 = alloca ptr, align 8
  %8 = alloca ptr, align 8
  store ptr %0, ptr %3, align 8, !tbaa !6
  call void @llvm.lifetime.start.p0(i64 8, ptr %4) #8
  store ptr null, ptr %4, align 8, !tbaa !11
  call void @llvm.lifetime.start.p0(i64 8, ptr %5) #8
  %9 = load ptr, ptr %3, align 8, !tbaa !6
  %10 = getelementptr inbounds nuw %struct.backend_kwallet_context_t, ptr %9, i32 0, i32 0
  %11 = load ptr, ptr %10, align 8, !tbaa !13
  %12 = load ptr, ptr @klauncher_service_name, align 8, !tbaa !59
  %13 = load ptr, ptr @klauncher_path, align 8, !tbaa !59
  %14 = load ptr, ptr @klauncher_interface, align 8, !tbaa !59
  %15 = call ptr (ptr, ...) @g_variant_new(ptr noundef @.str.18, ptr noundef @.str.19, ptr noundef null, ptr noundef null, ptr noundef @.str.20, i32 noundef 0)
  %16 = call ptr @g_dbus_connection_call_sync(ptr noundef %11, ptr noundef %12, ptr noundef %13, ptr noundef %14, ptr noundef @.str.17, ptr noundef %15, ptr noundef null, i32 noundef 0, i32 noundef -1, ptr noundef null, ptr noundef %4)
  store ptr %16, ptr %5, align 8, !tbaa !60
  %17 = load ptr, ptr %4, align 8, !tbaa !11
  %18 = call i32 @check_error(ptr noundef %17)
  %19 = icmp ne i32 %18, 0
  br i1 %19, label %20, label %21

20:                                               ; preds = %1
  store i32 0, ptr %2, align 4
  store i32 1, ptr %6, align 4
  br label %55

21:                                               ; preds = %1
  call void @llvm.lifetime.start.p0(i64 8, ptr %7) #8
  %22 = load ptr, ptr %5, align 8, !tbaa !60
  %23 = call ptr @g_variant_get_child_value(ptr noundef %22, i64 noundef 2)
  store ptr %23, ptr %7, align 8, !tbaa !60
  call void @llvm.lifetime.start.p0(i64 8, ptr %8) #8
  %24 = load ptr, ptr %7, align 8, !tbaa !60
  %25 = call ptr @g_variant_dup_string(ptr noundef %24, ptr noundef null)
  store ptr %25, ptr %8, align 8, !tbaa !59
  %26 = load ptr, ptr %7, align 8, !tbaa !60
  call void @g_variant_unref(ptr noundef %26)
  %27 = load ptr, ptr %5, align 8, !tbaa !60
  call void @g_variant_unref(ptr noundef %27)
  %28 = load ptr, ptr %8, align 8, !tbaa !59
  %29 = icmp ne ptr %28, null
  br i1 %29, label %30, label %52

30:                                               ; preds = %21
  %31 = load ptr, ptr %8, align 8, !tbaa !59
  %32 = getelementptr inbounds i8, ptr %31, i64 0
  %33 = load i8, ptr %32, align 1, !tbaa !64
  %34 = sext i8 %33 to i32
  %35 = icmp ne i32 %34, 0
  br i1 %35, label %36, label %52

36:                                               ; preds = %30
  br label %37

37:                                               ; preds = %36
  %38 = load i32, ptr getelementptr inbounds nuw (%struct.darktable_t, ptr @darktable, i32 0, i32 2), align 8, !tbaa !18
  %39 = and i32 64, %38
  %40 = icmp ne i32 %39, 0
  br i1 %40, label %41, label %48

41:                                               ; preds = %37
  %42 = load i32, ptr getelementptr inbounds nuw (%struct.darktable_t, ptr @darktable, i32 0, i32 2), align 8, !tbaa !18
  %43 = xor i32 %42, -1
  %44 = and i32 0, %43
  %45 = icmp ne i32 %44, 0
  br i1 %45, label %48, label %46

46:                                               ; preds = %41
  %47 = load ptr, ptr %8, align 8, !tbaa !59
  call void (ptr, ...) @dt_print_ext(ptr noundef @.str.21, ptr noundef %47)
  br label %48

48:                                               ; preds = %46, %41, %37
  br label %49

49:                                               ; preds = %48
  br label %50

50:                                               ; preds = %49
  %51 = load ptr, ptr %8, align 8, !tbaa !59
  call void @g_free(ptr noundef %51)
  store i32 0, ptr %2, align 4
  store i32 1, ptr %6, align 4
  br label %54

52:                                               ; preds = %30, %21
  %53 = load ptr, ptr %8, align 8, !tbaa !59
  call void @g_free(ptr noundef %53)
  store i32 1, ptr %2, align 4
  store i32 1, ptr %6, align 4
  br label %54

54:                                               ; preds = %52, %50
  call void @llvm.lifetime.end.p0(i64 8, ptr %8) #8
  call void @llvm.lifetime.end.p0(i64 8, ptr %7) #8
  br label %55

55:                                               ; preds = %54, %20
  call void @llvm.lifetime.end.p0(i64 8, ptr %5) #8
  call void @llvm.lifetime.end.p0(i64 8, ptr %4) #8
  %56 = load i32, ptr %2, align 4
  ret i32 %56
}

; Function Attrs: nounwind uwtable
define internal i32 @check_error(ptr noundef %0) #0 {
  %2 = alloca i32, align 4
  %3 = alloca ptr, align 8
  store ptr %0, ptr %3, align 8, !tbaa !11
  %4 = load ptr, ptr %3, align 8, !tbaa !11
  %5 = icmp ne ptr %4, null
  br i1 %5, label %6, label %23

6:                                                ; preds = %1
  br label %7

7:                                                ; preds = %6
  %8 = load i32, ptr getelementptr inbounds nuw (%struct.darktable_t, ptr @darktable, i32 0, i32 2), align 8, !tbaa !18
  %9 = and i32 64, %8
  %10 = icmp ne i32 %9, 0
  br i1 %10, label %11, label %20

11:                                               ; preds = %7
  %12 = load i32, ptr getelementptr inbounds nuw (%struct.darktable_t, ptr @darktable, i32 0, i32 2), align 8, !tbaa !18
  %13 = xor i32 %12, -1
  %14 = and i32 0, %13
  %15 = icmp ne i32 %14, 0
  br i1 %15, label %20, label %16

16:                                               ; preds = %11
  %17 = load ptr, ptr %3, align 8, !tbaa !11
  %18 = getelementptr inbounds nuw %struct._GError, ptr %17, i32 0, i32 2
  %19 = load ptr, ptr %18, align 8, !tbaa !56
  call void (ptr, ...) @dt_print_ext(ptr noundef @.str.11, ptr noundef %19)
  br label %20

20:                                               ; preds = %16, %11, %7
  br label %21

21:                                               ; preds = %20
  %22 = load ptr, ptr %3, align 8, !tbaa !11
  call void @g_error_free(ptr noundef %22)
  store i32 1, ptr %2, align 4
  br label %24

23:                                               ; preds = %1
  store i32 0, ptr %2, align 4
  br label %24

24:                                               ; preds = %23, %21
  %25 = load i32, ptr %2, align 4
  ret i32 %25
}

; Function Attrs: nounwind uwtable
define ptr @dt_pwstorage_kwallet_new() #0 {
  %1 = alloca ptr, align 8
  %2 = alloca ptr, align 8
  %3 = alloca ptr, align 8
  %4 = alloca i32, align 4
  call void @llvm.lifetime.start.p0(i64 8, ptr %2) #8
  %5 = call noalias ptr @g_malloc0(i64 noundef 24) #9
  store ptr %5, ptr %2, align 8, !tbaa !6
  call void @llvm.lifetime.start.p0(i64 8, ptr %3) #8
  store ptr null, ptr %3, align 8, !tbaa !11
  %6 = call ptr @g_bus_get_sync(i32 noundef 2, ptr noundef null, ptr noundef %3)
  %7 = load ptr, ptr %2, align 8, !tbaa !6
  %8 = getelementptr inbounds nuw %struct.backend_kwallet_context_t, ptr %7, i32 0, i32 0
  store ptr %6, ptr %8, align 8, !tbaa !13
  %9 = load ptr, ptr %3, align 8, !tbaa !11
  %10 = call i32 @check_error(ptr noundef %9)
  %11 = icmp ne i32 %10, 0
  br i1 %11, label %12, label %14

12:                                               ; preds = %0
  %13 = load ptr, ptr %2, align 8, !tbaa !6
  call void @g_free(ptr noundef %13)
  store ptr null, ptr %1, align 8
  store i32 1, ptr %4, align 4
  br label %34

14:                                               ; preds = %0
  %15 = load ptr, ptr %2, align 8, !tbaa !6
  %16 = call i32 @init_kwallet(ptr noundef %15)
  %17 = icmp ne i32 %16, 0
  br i1 %17, label %32, label %18

18:                                               ; preds = %14
  %19 = load ptr, ptr %2, align 8, !tbaa !6
  %20 = call i32 @start_kwallet(ptr noundef %19)
  %21 = icmp ne i32 %20, 0
  br i1 %21, label %22, label %26

22:                                               ; preds = %18
  %23 = load ptr, ptr %2, align 8, !tbaa !6
  %24 = call i32 @init_kwallet(ptr noundef %23)
  %25 = icmp ne i32 %24, 0
  br i1 %25, label %31, label %26

26:                                               ; preds = %22, %18
  %27 = load ptr, ptr %2, align 8, !tbaa !6
  %28 = getelementptr inbounds nuw %struct.backend_kwallet_context_t, ptr %27, i32 0, i32 0
  %29 = load ptr, ptr %28, align 8, !tbaa !13
  call void @g_object_unref(ptr noundef %29)
  %30 = load ptr, ptr %2, align 8, !tbaa !6
  call void @g_free(ptr noundef %30)
  store ptr null, ptr %1, align 8
  store i32 1, ptr %4, align 4
  br label %34

31:                                               ; preds = %22
  br label %32

32:                                               ; preds = %31, %14
  %33 = load ptr, ptr %2, align 8, !tbaa !6
  store ptr %33, ptr %1, align 8
  store i32 1, ptr %4, align 4
  br label %34

34:                                               ; preds = %32, %26, %12
  call void @llvm.lifetime.end.p0(i64 8, ptr %3) #8
  call void @llvm.lifetime.end.p0(i64 8, ptr %2) #8
  %35 = load ptr, ptr %1, align 8
  ret ptr %35
}