; Function Attrs: nounwind uwtable
define noundef ptr @dt_pwstorage_kwallet_new() local_unnamed_addr #0 {
  %1 = alloca ptr, align 8
  %2 = alloca ptr, align 8
  %3 = tail call noalias dereferenceable_or_null(24) ptr @g_malloc0(i64 noundef 24) #9
  call void @llvm.lifetime.start.p0(i64 8, ptr nonnull %2) #10
  store ptr null, ptr %2, align 8, !tbaa !6
  %4 = call ptr @g_bus_get_sync(i32 noundef 2, ptr noundef null, ptr noundef nonnull %2) #10
  store ptr %4, ptr %3, align 8, !tbaa !11
  %5 = load ptr, ptr %2, align 8, !tbaa !6
  %.not.i = icmp eq ptr %5, null
  br i1 %.not.i, label %13, label %6

6:                                                ; preds = %0
  %7 = load i32, ptr getelementptr inbounds nuw (i8, ptr @darktable, i64 8), align 8, !tbaa !16
  %8 = and i32 %7, 64
  %.not4.i = icmp eq i32 %8, 0
  br i1 %.not4.i, label %12, label %9

9:                                                ; preds = %6
  %10 = getelementptr inbounds nuw i8, ptr %5, i64 8
  %11 = load ptr, ptr %10, align 8, !tbaa !54
  call void (ptr, ...) @dt_print_ext(ptr noundef nonnull @.str.11, ptr noundef %11) #10
  br label %12

12:                                               ; preds = %9, %6
  call void @g_error_free(ptr noundef nonnull %5) #10
  br label %.sink.split

13:                                               ; preds = %0
  %14 = call fastcc i32 @init_kwallet(ptr noundef nonnull %3)
  %.not9 = icmp eq i32 %14, 0
  br i1 %.not9, label %15, label %39

15:                                               ; preds = %13
  %.val = load ptr, ptr %3, align 8, !tbaa !11
  call void @llvm.lifetime.start.p0(i64 8, ptr nonnull %1) #10
  store ptr null, ptr %1, align 8, !tbaa !6
  %16 = call ptr (ptr, ...) @g_variant_new(ptr noundef nonnull @.str.18, ptr noundef nonnull @.str.19, ptr noundef null, ptr noundef null, ptr noundef nonnull @.str.20, i32 noundef 0) #10
  %17 = call ptr @g_dbus_connection_call_sync(ptr noundef %.val, ptr noundef nonnull @.str.22, ptr noundef nonnull @.str.23, ptr noundef nonnull @.str.24, ptr noundef nonnull @.str.17, ptr noundef %16, ptr noundef null, i32 noundef 0, i32 noundef -1, ptr noundef null, ptr noundef nonnull %1) #10
  %18 = load ptr, ptr %1, align 8, !tbaa !6
  %.not.i.i = icmp eq ptr %18, null
  br i1 %.not.i.i, label %25, label %19

19:                                               ; preds = %15
  %20 = load i32, ptr getelementptr inbounds nuw (i8, ptr @darktable, i64 8), align 8, !tbaa !16
  %21 = and i32 %20, 64
  %.not4.i.i = icmp eq i32 %21, 0
  br i1 %.not4.i.i, label %check_error.exit.i, label %22

22:                                               ; preds = %19
  %23 = getelementptr inbounds nuw i8, ptr %18, i64 8
  %24 = load ptr, ptr %23, align 8, !tbaa !54
  call void (ptr, ...) @dt_print_ext(ptr noundef nonnull @.str.11, ptr noundef %24) #10
  br label %check_error.exit.i

check_error.exit.i:                               ; preds = %22, %19
  call void @g_error_free(ptr noundef nonnull %18) #10
  br label %start_kwallet.exit.thread

25:                                               ; preds = %15
  %26 = call ptr @g_variant_get_child_value(ptr noundef %17, i64 noundef 2) #10
  %27 = call ptr @g_variant_dup_string(ptr noundef %26, ptr noundef null) #10
  call void @g_variant_unref(ptr noundef %26) #10
  call void @g_variant_unref(ptr noundef %17) #10
  %.not11.i = icmp eq ptr %27, null
  br i1 %.not11.i, label %35, label %28

28:                                               ; preds = %25
  %29 = load i8, ptr %27, align 1, !tbaa !56
  %.not12.i = icmp eq i8 %29, 0
  br i1 %.not12.i, label %35, label %30

30:                                               ; preds = %28
  %31 = load i32, ptr getelementptr inbounds nuw (i8, ptr @darktable, i64 8), align 8, !tbaa !16
  %32 = and i32 %31, 64
  %.not13.i = icmp eq i32 %32, 0
  br i1 %.not13.i, label %34, label %33

33:                                               ; preds = %30
  call void (ptr, ...) @dt_print_ext(ptr noundef nonnull @.str.21, ptr noundef nonnull %27) #10
  br label %34

34:                                               ; preds = %33, %30
  call void @g_free(ptr noundef nonnull %27) #10
  br label %start_kwallet.exit.thread

start_kwallet.exit.thread:                        ; preds = %check_error.exit.i, %34
  call void @llvm.lifetime.end.p0(i64 8, ptr nonnull %1) #10
  br label %37

35:                                               ; preds = %28, %25
  call void @g_free(ptr noundef %27) #10
  call void @llvm.lifetime.end.p0(i64 8, ptr nonnull %1) #10
  %36 = call fastcc i32 @init_kwallet(ptr noundef nonnull %3)
  %.not11 = icmp eq i32 %36, 0
  br i1 %.not11, label %37, label %39

37:                                               ; preds = %start_kwallet.exit.thread, %35
  %38 = load ptr, ptr %3, align 8, !tbaa !11
  call void @g_object_unref(ptr noundef %38) #10
  br label %.sink.split

.sink.split:                                      ; preds = %12, %37
  call void @g_free(ptr noundef nonnull %3) #10
  br label %39

39:                                               ; preds = %.sink.split, %13, %35
  %.0 = phi ptr [ %3, %35 ], [ %3, %13 ], [ null, %.sink.split ]
  call void @llvm.lifetime.end.p0(i64 8, ptr nonnull %2) #10
  ret ptr %.0
}